; Function Attrs: mustprogress uwtable
define noundef nonnull align 8 dereferenceable(400) ptr @_ZN6icu_7515AlphabeticIndex9addLabelsERKNS_10UnicodeSetER10UErrorCode(ptr noundef nonnull returned align 8 dereferenceable(400) %this, ptr noundef nonnull align 8 dereferenceable(200) %additions, ptr nocapture noundef nonnull readonly align 4 dereferenceable(4) %status) unnamed_addr #3 align 2 {
entry:
  %0 = load i32, ptr %status, align 4
  %cmp.i = icmp slt i32 %0, 1
  br i1 %cmp.i, label %if.end, label %return

if.end:                                           ; preds = %entry
  %initialLabels_ = getelementptr inbounds i8, ptr %this, i64 40
  %1 = load ptr, ptr %initialLabels_, align 8
  %call2 = tail call noundef nonnull align 8 dereferenceable(200) ptr @_ZN6icu_7510UnicodeSet6addAllERKS0_(ptr noundef nonnull align 8 dereferenceable(200) %1, ptr noundef nonnull align 8 dereferenceable(200) %additions)
  %buckets_.i = getelementptr inbounds i8, ptr %this, i64 72
  %2 = load ptr, ptr %buckets_.i, align 8
  %cmp.not.i = icmp eq ptr %2, null
  br i1 %cmp.not.i, label %return, label %delete.notnull.i

delete.notnull.i:                                 ; preds = %if.end
  %vtable.i = load ptr, ptr %2, align 8
  %vfn.i = getelementptr inbounds i8, ptr %vtable.i, i64 8
  %3 = load ptr, ptr %vfn.i, align 8
  tail call void %3(ptr noundef nonnull align 8 dereferenceable(24) %2) #16
  store ptr null, ptr %buckets_.i, align 8
  %labelsIterIndex_.i.i = getelementptr inbounds i8, ptr %this, i64 16
  store i32 -1, ptr %labelsIterIndex_.i.i, align 8
  %currentBucket_.i.i = getelementptr inbounds i8, ptr %this, i64 24
  store ptr null, ptr %currentBucket_.i.i, align 8
  br label %return

return:                                           ; preds = %delete.notnull.i, %if.end, %entry
  ret ptr %this
}